; Function Attrs: mustprogress noinline uwtable
define hidden noundef ptr @_ZN6google8protobuf5Arena18CreateMaybeMessageINS0_20FieldDescriptorProtoEJEEEPT_PS1_DpOT0_(ptr noundef %0) local_unnamed_addr #18 align 2 personality ptr @__gxx_personality_v0 {
  %2 = icmp eq ptr %0, null
  br i1 %2, label %_ZN6google8protobuf5Arena14InternalHelperINS0_20FieldDescriptorProtoEE3NewEv.exit, label %5

_ZN6google8protobuf5Arena14InternalHelperINS0_20FieldDescriptorProtoEE3NewEv.exit: ; preds = %1
  %3 = tail call noalias noundef nonnull dereferenceable(96) ptr @_Znwm(i64 noundef 96) #26
  %4 = getelementptr inbounds nuw i8, ptr %3, i64 8
  store i64 0, ptr %4, align 8, !tbaa !8
  br label %_ZN6google8protobuf5Arena21CreateMessageInternalINS0_20FieldDescriptorProtoEEEPT_PS1_.exit

5:                                                ; preds = %1
  %6 = tail call noundef ptr @_ZN6google8protobuf5Arena23AllocateAlignedWithHookEmPKSt9type_info(ptr noundef nonnull align 8 dereferenceable(32) %0, i64 noundef 96, ptr noundef nonnull @_ZTIN6google8protobuf20FieldDescriptorProtoE)
  %7 = getelementptr inbounds nuw i8, ptr %6, i64 8
  %8 = ptrtoint ptr %0 to i64
  store i64 %8, ptr %7, align 8, !tbaa !8
  br label %_ZN6google8protobuf5Arena21CreateMessageInternalINS0_20FieldDescriptorProtoEEEPT_PS1_.exit

_ZN6google8protobuf5Arena21CreateMessageInternalINS0_20FieldDescriptorProtoEEEPT_PS1_.exit: ; preds = %_ZN6google8protobuf5Arena14InternalHelperINS0_20FieldDescriptorProtoEE3NewEv.exit, %5
  %.sink11 = phi ptr [ %3, %_ZN6google8protobuf5Arena14InternalHelperINS0_20FieldDescriptorProtoEE3NewEv.exit ], [ %6, %5 ]
  store ptr getelementptr inbounds nuw inrange(-16, 152) (i8, ptr @_ZTVN6google8protobuf20FieldDescriptorProtoE, i64 16), ptr %.sink11, align 8, !tbaa !11
  %.ptr.i = getelementptr inbounds nuw i8, ptr %.sink11, i64 16
  store i32 0, ptr %.ptr.i, align 4, !tbaa !58
  %9 = getelementptr inbounds nuw i8, ptr %.sink11, i64 20
  store i32 0, ptr %9, align 4, !tbaa !25
  %10 = getelementptr inbounds nuw i8, ptr %.sink11, i64 24
  store ptr @_ZN6google8protobuf8internal26fixed_address_empty_stringB5cxx11E, ptr %10, align 8, !tbaa !84
  %11 = getelementptr inbounds nuw i8, ptr %.sink11, i64 32
  store ptr @_ZN6google8protobuf8internal26fixed_address_empty_stringB5cxx11E, ptr %11, align 8, !tbaa !84
  %12 = getelementptr inbounds nuw i8, ptr %.sink11, i64 40
  store ptr @_ZN6google8protobuf8internal26fixed_address_empty_stringB5cxx11E, ptr %12, align 8, !tbaa !84
  %13 = getelementptr inbounds nuw i8, ptr %.sink11, i64 48
  store ptr @_ZN6google8protobuf8internal26fixed_address_empty_stringB5cxx11E, ptr %13, align 8, !tbaa !84
  %14 = getelementptr inbounds nuw i8, ptr %.sink11, i64 56
  store ptr @_ZN6google8protobuf8internal26fixed_address_empty_stringB5cxx11E, ptr %14, align 8, !tbaa !84
  %15 = getelementptr inbounds nuw i8, ptr %.sink11, i64 64
  tail call void @llvm.memset.p0.i64(ptr noundef nonnull align 8 dereferenceable(17) %15, i8 0, i64 17, i1 false)
  %16 = getelementptr inbounds nuw i8, ptr %.sink11, i64 84
  store i32 1, ptr %16, align 4, !tbaa !279
  %17 = getelementptr inbounds nuw i8, ptr %.sink11, i64 88
  store i32 1, ptr %17, align 8, !tbaa !280
  ret ptr %.sink11
}